target datalayout = "e-m:e-p270:32:32-p271:32:32-p272:64:64-i64:64-i128:128-f80:128-n8:16:32:64-S128"
target triple = "x86_64-pc-linux-gnu"

%class.rational = type { %class.mpq }
%class.mpq = type { %class.mpz, %class.mpz }
%class.mpz = type { i32, i8, ptr }
%class.ref_vector = type { %class.ref_vector_core }
%class.ref_vector_core = type { %class.ref_manager_wrapper, %class.ptr_vector }
%class.ref_manager_wrapper = type { ptr }
%class.ptr_vector = type { %class.vector.4 }
%class.vector.4 = type { ptr }
%class.pb_util = type { ptr, i32, %class.vector.289, %class.vector.290, %class.rational }
%class.vector.289 = type { ptr }
%class.vector.290 = type { ptr }
%class.svector.87 = type { %class.vector.88 }
%class.vector.88 = type { ptr }
%class.ptr_vector.164 = type { %class.vector.165 }
%class.vector.165 = type { ptr }
%class.svector.5 = type { %class.vector.6 }
%class.vector.6 = type { ptr }
%class.svector.195 = type { %class.vector.196 }
%class.vector.196 = type { ptr }
%class.uint_set = type { %class.svector.5 }
%class.svector.254 = type { %class.vector.255 }
%class.vector.255 = type { ptr }
%class.svector.11 = type { %class.vector.12 }
%class.vector.12 = type { ptr }
%"class.smt::theory_pb" = type { %"class.smt::theory.base", [3 x i8], %struct.theory_pb_params, %class.svector.291, %class.mpz_manager, %class._scoped_numeral_vector, %class.svector.5, %class.svector.5, %class.svector.195, %class.pb_util, %"struct.smt::theory_pb::stats", i32, i8, i32, i32, %class.uint_set, %class.svector.5, %class.svector.5, i32, %class.svector.195, i32, %class.svector.87, %class.svector.5, i32, %class.svector.195, %class.tracked_uint_set, %class.ref_vector, %class.svector.11, %class.ref_vector, %class.svector.11, %class.vector.295, %class.svector.5 }
%"class.smt::theory.base" = type <{ ptr, i32, [4 x i8], ptr, ptr, %class.ptr_vector.164, %class.svector.5, i32, i8 }>
%struct.theory_pb_params = type <{ i32, i8, [3 x i8] }>
%class.svector.291 = type { %class.vector.292 }
%class.vector.292 = type { ptr }
%class.mpz_manager = type { %class.small_object_allocator, %"class.std::recursive_mutex", [4 x i8], i32, %class.mpz, %class.mpz }
%class.small_object_allocator = type { [32 x ptr], [32 x ptr], i64 }
%"class.std::recursive_mutex" = type { %"class.std::__recursive_mutex_base" }
%"class.std::__recursive_mutex_base" = type { %union.pthread_mutex_t }
%union.pthread_mutex_t = type { %struct.__pthread_mutex_s }
%struct.__pthread_mutex_s = type { i32, i32, i32, i32, i32, i16, i16, %struct.__pthread_internal_list }
%struct.__pthread_internal_list = type { ptr, ptr }
%class._scoped_numeral_vector = type { %class.svector.293, ptr }
%class.svector.293 = type { %class.vector.294 }
%class.vector.294 = type { ptr }
%"struct.smt::theory_pb::stats" = type { i32, i32, i32, i32 }
%class.tracked_uint_set = type { %class.svector.254, %class.svector.5 }
%class.vector.295 = type { ptr }

; Function Attrs: mustprogress nounwind uwtable
define linkonce_odr hidden noundef i32 @_ZNK6vectorIiLb0EjE4sizeEv(ptr noundef nonnull align 8 dereferenceable(8) %0) #4 comdat align 2 {
  %2 = alloca i32, align 4
  %3 = alloca ptr, align 8
  store ptr %0, ptr %3, align 8, !tbaa !697
  %4 = load ptr, ptr %3, align 8
  %5 = getelementptr inbounds nuw %class.vector.88, ptr %4, i32 0, i32 0
  %6 = load ptr, ptr %5, align 8, !tbaa !875
  %7 = icmp eq ptr %6, null
  br i1 %7, label %8, label %9

8:                                                ; preds = %1
  store i32 0, ptr %2, align 4
  br label %14

9:                                                ; preds = %1
  %10 = getelementptr inbounds nuw %class.vector.88, ptr %4, i32 0, i32 0
  %11 = load ptr, ptr %10, align 8, !tbaa !875
  %12 = getelementptr inbounds i32, ptr %11, i64 -1
  %13 = load i32, ptr %12, align 4, !tbaa !8
  store i32 %13, ptr %2, align 4
  br label %14

14:                                               ; preds = %9, %8
  %15 = load i32, ptr %2, align 4
  ret i32 %15
}

; Function Attrs: mustprogress uwtable
define linkonce_odr hidden noundef nonnull align 4 dereferenceable(4) ptr @_ZNK6vectorIiLb0EjE3getEjRKi(ptr noundef nonnull align 8 dereferenceable(8) %0, i32 noundef %1, ptr noundef nonnull align 4 dereferenceable(4) %2) #6 comdat align 2 {
  %4 = alloca ptr, align 8
  %5 = alloca ptr, align 8
  %6 = alloca i32, align 4
  %7 = alloca ptr, align 8
  store ptr %0, ptr %5, align 8, !tbaa !697
  store i32 %1, ptr %6, align 4, !tbaa !8
  store ptr %2, ptr %7, align 8, !tbaa !730
  %8 = load ptr, ptr %5, align 8
  %9 = load i32, ptr %6, align 4, !tbaa !8
  %10 = call noundef i32 @_ZNK6vectorIiLb0EjE4sizeEv(ptr noundef nonnull align 8 dereferenceable(8) %8)
  %11 = icmp uge i32 %9, %10
  br i1 %11, label %12, label %14

12:                                               ; preds = %3
  %13 = load ptr, ptr %7, align 8, !tbaa !730
  store ptr %13, ptr %4, align 8
  br label %20

14:                                               ; preds = %3
  %15 = getelementptr inbounds nuw %class.vector.88, ptr %8, i32 0, i32 0
  %16 = load ptr, ptr %15, align 8, !tbaa !875
  %17 = load i32, ptr %6, align 4, !tbaa !8
  %18 = zext i32 %17 to i64
  %19 = getelementptr inbounds nuw i32, ptr %16, i64 %18
  store ptr %19, ptr %4, align 8
  br label %20

20:                                               ; preds = %14, %12
  %21 = load ptr, ptr %4, align 8
  ret ptr %21
}

; Function Attrs: mustprogress nounwind uwtable
define linkonce_odr hidden noundef ptr @_ZN6vectorIjLb0EjE3endEv(ptr noundef nonnull align 8 dereferenceable(8) %0) #4 comdat align 2 {
  %2 = alloca ptr, align 8
  store ptr %0, ptr %2, align 8, !tbaa !693
  %3 = load ptr, ptr %2, align 8
  %4 = getelementptr inbounds nuw %class.vector.6, ptr %3, i32 0, i32 0
  %5 = load ptr, ptr %4, align 8, !tbaa !731
  %6 = call noundef i32 @_ZNK6vectorIjLb0EjE4sizeEv(ptr noundef nonnull align 8 dereferenceable(8) %3)
  %7 = zext i32 %6 to i64
  %8 = getelementptr inbounds nuw i32, ptr %5, i64 %7
  ret ptr %8
}

; Function Attrs: mustprogress nounwind uwtable
define linkonce_odr hidden noundef ptr @_ZN6vectorIjLb0EjE5beginEv(ptr noundef nonnull align 8 dereferenceable(8) %0) #4 comdat align 2 {
  %2 = alloca ptr, align 8
  store ptr %0, ptr %2, align 8, !tbaa !693
  %3 = load ptr, ptr %2, align 8
  %4 = getelementptr inbounds nuw %class.vector.6, ptr %3, i32 0, i32 0
  %5 = load ptr, ptr %4, align 8, !tbaa !731
  ret ptr %5
}

; Function Attrs: mustprogress nounwind uwtable
define linkonce_odr hidden noundef nonnull align 4 dereferenceable(4) ptr @_ZN6vectorIiLb0EjEixEj(ptr noundef nonnull align 8 dereferenceable(8) %0, i32 noundef %1) #4 comdat align 2 {
  %3 = alloca ptr, align 8
  %4 = alloca i32, align 4
  store ptr %0, ptr %3, align 8, !tbaa !697
  store i32 %1, ptr %4, align 4, !tbaa !8
  %5 = load ptr, ptr %3, align 8
  %6 = getelementptr inbounds nuw %class.vector.88, ptr %5, i32 0, i32 0
  %7 = load ptr, ptr %6, align 8, !tbaa !875
  %8 = load i32, ptr %4, align 4, !tbaa !8
  %9 = zext i32 %8 to i64
  %10 = getelementptr inbounds nuw i32, ptr %7, i64 %9
  ret ptr %10
}

; Function Attrs: mustprogress uwtable
define hidden noundef i32 @_ZNK3smt9theory_pb9get_coeffEj(ptr noundef nonnull align 8 dereferenceable(968) %0, i32 noundef %1) #6 align 2 {
  %3 = alloca ptr, align 8
  %4 = alloca i32, align 4
  %5 = alloca i32, align 4
  store ptr %0, ptr %3, align 8, !tbaa !624
  store i32 %1, ptr %4, align 4, !tbaa !8
  %6 = load ptr, ptr %3, align 8
  %7 = getelementptr inbounds nuw %"class.smt::theory_pb", ptr %6, i32 0, i32 21
  %8 = load i32, ptr %4, align 4, !tbaa !8
  call void @llvm.lifetime.start.p0(i64 4, ptr %5) #3
  store i32 0, ptr %5, align 4, !tbaa !8
  %9 = call noundef nonnull align 4 dereferenceable(4) ptr @_ZNK6vectorIiLb0EjE3getEjRKi(ptr noundef nonnull align 8 dereferenceable(8) %7, i32 noundef %8, ptr noundef nonnull align 4 dereferenceable(4) %5)
  %10 = load i32, ptr %9, align 4, !tbaa !8
  call void @llvm.lifetime.end.p0(i64 4, ptr %5) #3
  ret i32 %10
}

; Function Attrs: mustprogress uwtable
define hidden noundef i32 @_ZNK3smt9theory_pb13get_abs_coeffEj(ptr noundef nonnull align 8 dereferenceable(968) %0, i32 noundef %1) #6 align 2 {
  %3 = alloca ptr, align 8
  %4 = alloca i32, align 4
  %5 = alloca i32, align 4
  store ptr %0, ptr %3, align 8, !tbaa !624
  store i32 %1, ptr %4, align 4, !tbaa !8
  %6 = load ptr, ptr %3, align 8
  call void @llvm.lifetime.start.p0(i64 4, ptr %5) #3
  %7 = load i32, ptr %4, align 4, !tbaa !8
  %8 = call noundef i32 @_ZNK3smt9theory_pb9get_coeffEj(ptr noundef nonnull align 8 dereferenceable(968) %6, i32 noundef %7)
  store i32 %8, ptr %5, align 4, !tbaa !8
  %9 = load i32, ptr %5, align 4, !tbaa !8
  %10 = icmp slt i32 %9, 0
  br i1 %10, label %11, label %14

11:                                               ; preds = %2
  %12 = load i32, ptr %5, align 4, !tbaa !8
  %13 = sub nsw i32 0, %12
  store i32 %13, ptr %5, align 4, !tbaa !8
  br label %14

14:                                               ; preds = %11, %2
  %15 = load i32, ptr %5, align 4, !tbaa !8
  call void @llvm.lifetime.end.p0(i64 4, ptr %5) #3
  ret i32 %15
}

; Function Attrs: mustprogress nounwind uwtable
define linkonce_odr hidden noundef nonnull align 4 dereferenceable(4) ptr @_ZN6vectorIjLb0EjEixEj(ptr noundef nonnull align 8 dereferenceable(8) %0, i32 noundef %1) #4 comdat align 2 {
  %3 = alloca ptr, align 8
  %4 = alloca i32, align 4
  store ptr %0, ptr %3, align 8, !tbaa !693
  store i32 %1, ptr %4, align 4, !tbaa !8
  %5 = load ptr, ptr %3, align 8
  %6 = getelementptr inbounds nuw %class.vector.6, ptr %5, i32 0, i32 0
  %7 = load ptr, ptr %6, align 8, !tbaa !731
  %8 = load i32, ptr %4, align 4, !tbaa !8
  %9 = zext i32 %8 to i64
  %10 = getelementptr inbounds nuw i32, ptr %7, i64 %9
  ret ptr %10
}

; Function Attrs: mustprogress nounwind uwtable
define linkonce_odr hidden noundef i32 @_ZNK6vectorIjLb0EjE4sizeEv(ptr noundef nonnull align 8 dereferenceable(8) %0) #4 comdat align 2 {
  %2 = alloca i32, align 4
  %3 = alloca ptr, align 8
  store ptr %0, ptr %3, align 8, !tbaa !693
  %4 = load ptr, ptr %3, align 8
  %5 = getelementptr inbounds nuw %class.vector.6, ptr %4, i32 0, i32 0
  %6 = load ptr, ptr %5, align 8, !tbaa !731
  %7 = icmp eq ptr %6, null
  br i1 %7, label %8, label %9

8:                                                ; preds = %1
  store i32 0, ptr %2, align 4
  br label %14

9:                                                ; preds = %1
  %10 = getelementptr inbounds nuw %class.vector.6, ptr %4, i32 0, i32 0
  %11 = load ptr, ptr %10, align 8, !tbaa !731
  %12 = getelementptr inbounds i32, ptr %11, i64 -1
  %13 = load i32, ptr %12, align 4, !tbaa !8
  store i32 %13, ptr %2, align 4
  br label %14

14:                                               ; preds = %9, %8
  %15 = load i32, ptr %2, align 4
  ret i32 %15
}

; Function Attrs: mustprogress uwtable
define hidden void @_ZN3smt9theory_pb3cutEv(ptr noundef nonnull align 8 dereferenceable(968) %0) #6 align 2 {
  %2 = alloca ptr, align 8
  %3 = alloca i32, align 4
  %4 = alloca i32, align 4
  %5 = alloca i32, align 4
  %6 = alloca i32, align 4
  %7 = alloca i32, align 4
  %8 = alloca ptr, align 8
  %9 = alloca ptr, align 8
  %10 = alloca ptr, align 8
  %11 = alloca i32, align 4
  store ptr %0, ptr %2, align 8, !tbaa !624
  %12 = load ptr, ptr %2, align 8
  call void @llvm.lifetime.start.p0(i64 4, ptr %3) #3
  store i32 0, ptr %3, align 4, !tbaa !8
  call void @llvm.lifetime.start.p0(i64 4, ptr %4) #3
  store i32 0, ptr %4, align 4, !tbaa !8
  br label %13

13:                                               ; preds = %72, %1
  %14 = load i32, ptr %3, align 4, !tbaa !8
  %15 = icmp ne i32 %14, 1
  br i1 %15, label %16, label %21

16:                                               ; preds = %13
  %17 = load i32, ptr %4, align 4, !tbaa !8
  %18 = getelementptr inbounds nuw %"class.smt::theory_pb", ptr %12, i32 0, i32 22
  %19 = call noundef i32 @_ZNK6vectorIjLb0EjE4sizeEv(ptr noundef nonnull align 8 dereferenceable(8) %18)
  %20 = icmp ult i32 %17, %19
  br label %21

21:                                               ; preds = %16, %13
  %22 = phi i1 [ false, %13 ], [ %20, %16 ]
  br i1 %22, label %24, label %23

23:                                               ; preds = %21
  store i32 2, ptr %5, align 4
  call void @llvm.lifetime.end.p0(i64 4, ptr %4) #3
  br label %75

24:                                               ; preds = %21
  call void @llvm.lifetime.start.p0(i64 4, ptr %6) #3
  %25 = getelementptr inbounds nuw %"class.smt::theory_pb", ptr %12, i32 0, i32 22
  %26 = load i32, ptr %4, align 4, !tbaa !8
  %27 = call noundef nonnull align 4 dereferenceable(4) ptr @_ZN6vectorIjLb0EjEixEj(ptr noundef nonnull align 8 dereferenceable(8) %25, i32 noundef %26)
  %28 = load i32, ptr %27, align 4, !tbaa !8
  store i32 %28, ptr %6, align 4, !tbaa !8
  call void @llvm.lifetime.start.p0(i64 4, ptr %7) #3
  %29 = load i32, ptr %6, align 4, !tbaa !8
  %30 = call noundef i32 @_ZNK3smt9theory_pb13get_abs_coeffEj(ptr noundef nonnull align 8 dereferenceable(968) %12, i32 noundef %29)
  store i32 %30, ptr %7, align 4, !tbaa !8
  %31 = load i32, ptr %7, align 4, !tbaa !8
  %32 = icmp eq i32 %31, 0
  br i1 %32, label %33, label %34

33:                                               ; preds = %24
  store i32 4, ptr %5, align 4
  br label %69

34:                                               ; preds = %24
  %35 = getelementptr inbounds nuw %"class.smt::theory_pb", ptr %12, i32 0, i32 23
  %36 = load i32, ptr %35, align 8, !tbaa !803
  %37 = load i32, ptr %7, align 4, !tbaa !8
  %38 = icmp slt i32 %36, %37
  br i1 %38, label %39, label %59

39:                                               ; preds = %34
  %40 = load i32, ptr %6, align 4, !tbaa !8
  %41 = call noundef i32 @_ZNK3smt9theory_pb9get_coeffEj(ptr noundef nonnull align 8 dereferenceable(968) %12, i32 noundef %40)
  %42 = icmp sgt i32 %41, 0
  br i1 %42, label %43, label %49

43:                                               ; preds = %39
  %44 = getelementptr inbounds nuw %"class.smt::theory_pb", ptr %12, i32 0, i32 23
  %45 = load i32, ptr %44, align 8, !tbaa !803
  %46 = getelementptr inbounds nuw %"class.smt::theory_pb", ptr %12, i32 0, i32 21
  %47 = load i32, ptr %6, align 4, !tbaa !8
  %48 = call noundef nonnull align 4 dereferenceable(4) ptr @_ZN6vectorIiLb0EjEixEj(ptr noundef nonnull align 8 dereferenceable(8) %46, i32 noundef %47)
  store i32 %45, ptr %48, align 4, !tbaa !8
  br label %56

49:                                               ; preds = %39
  %50 = getelementptr inbounds nuw %"class.smt::theory_pb", ptr %12, i32 0, i32 23
  %51 = load i32, ptr %50, align 8, !tbaa !803
  %52 = sub nsw i32 0, %51
  %53 = getelementptr inbounds nuw %"class.smt::theory_pb", ptr %12, i32 0, i32 21
  %54 = load i32, ptr %6, align 4, !tbaa !8
  %55 = call noundef nonnull align 4 dereferenceable(4) ptr @_ZN6vectorIiLb0EjEixEj(ptr noundef nonnull align 8 dereferenceable(8) %53, i32 noundef %54)
  store i32 %52, ptr %55, align 4, !tbaa !8
  br label %56

56:                                               ; preds = %49, %43
  %57 = getelementptr inbounds nuw %"class.smt::theory_pb", ptr %12, i32 0, i32 23
  %58 = load i32, ptr %57, align 8, !tbaa !803
  store i32 %58, ptr %7, align 4, !tbaa !8
  br label %59

59:                                               ; preds = %56, %34
  %60 = load i32, ptr %3, align 4, !tbaa !8
  %61 = icmp eq i32 %60, 0
  br i1 %61, label %62, label %64

62:                                               ; preds = %59
  %63 = load i32, ptr %7, align 4, !tbaa !8
  store i32 %63, ptr %3, align 4, !tbaa !8
  br label %68

64:                                               ; preds = %59
  %65 = load i32, ptr %3, align 4, !tbaa !8
  %66 = load i32, ptr %7, align 4, !tbaa !8
  %67 = call noundef i32 @_Z5u_gcdjj(i32 noundef %65, i32 noundef %66)
  store i32 %67, ptr %3, align 4, !tbaa !8
  br label %68

68:                                               ; preds = %64, %62
  store i32 0, ptr %5, align 4
  br label %69

69:                                               ; preds = %68, %33
  call void @llvm.lifetime.end.p0(i64 4, ptr %7) #3
  call void @llvm.lifetime.end.p0(i64 4, ptr %6) #3
  %70 = load i32, ptr %5, align 4
  switch i32 %70, label %111 [
    i32 0, label %71
    i32 4, label %72
  ]

71:                                               ; preds = %69
  br label %72

72:                                               ; preds = %71, %69
  %73 = load i32, ptr %4, align 4, !tbaa !8
  %74 = add i32 %73, 1
  store i32 %74, ptr %4, align 4, !tbaa !8
  br label %13, !llvm.loop !1001

75:                                               ; preds = %23
  %76 = load i32, ptr %3, align 4, !tbaa !8
  %77 = icmp uge i32 %76, 2
  br i1 %77, label %78, label %110

78:                                               ; preds = %75
  call void @_ZN3smt9theory_pb23normalize_active_coeffsEv(ptr noundef nonnull align 8 dereferenceable(968) %12)
  call void @llvm.lifetime.start.p0(i64 8, ptr %8) #3
  %79 = getelementptr inbounds nuw %"class.smt::theory_pb", ptr %12, i32 0, i32 22
  store ptr %79, ptr %8, align 8, !tbaa !681
  call void @llvm.lifetime.start.p0(i64 8, ptr %9) #3
  %80 = load ptr, ptr %8, align 8, !tbaa !681
  %81 = call noundef ptr @_ZN6vectorIjLb0EjE5beginEv(ptr noundef nonnull align 8 dereferenceable(8) %80)
  store ptr %81, ptr %9, align 8, !tbaa !730
  call void @llvm.lifetime.start.p0(i64 8, ptr %10) #3
  %82 = load ptr, ptr %8, align 8, !tbaa !681
  %83 = call noundef ptr @_ZN6vectorIjLb0EjE3endEv(ptr noundef nonnull align 8 dereferenceable(8) %82)
  store ptr %83, ptr %10, align 8, !tbaa !730
  br label %84

84:                                               ; preds = %98, %78
  %85 = load ptr, ptr %9, align 8, !tbaa !730
  %86 = load ptr, ptr %10, align 8, !tbaa !730
  %87 = icmp ne ptr %85, %86
  br i1 %87, label %89, label %88

88:                                               ; preds = %84
  store i32 5, ptr %5, align 4
  call void @llvm.lifetime.end.p0(i64 8, ptr %10) #3
  call void @llvm.lifetime.end.p0(i64 8, ptr %9) #3
  call void @llvm.lifetime.end.p0(i64 8, ptr %8) #3
  br label %101

89:                                               ; preds = %84
  call void @llvm.lifetime.start.p0(i64 4, ptr %11) #3
  %90 = load ptr, ptr %9, align 8, !tbaa !730
  %91 = load i32, ptr %90, align 4, !tbaa !8
  store i32 %91, ptr %11, align 4, !tbaa !8
  %92 = load i32, ptr %3, align 4, !tbaa !8
  %93 = getelementptr inbounds nuw %"class.smt::theory_pb", ptr %12, i32 0, i32 21
  %94 = load i32, ptr %11, align 4, !tbaa !8
  %95 = call noundef nonnull align 4 dereferenceable(4) ptr @_ZN6vectorIiLb0EjEixEj(ptr noundef nonnull align 8 dereferenceable(8) %93, i32 noundef %94)
  %96 = load i32, ptr %95, align 4, !tbaa !8
  %97 = sdiv i32 %96, %92
  store i32 %97, ptr %95, align 4, !tbaa !8
  call void @llvm.lifetime.end.p0(i64 4, ptr %11) #3
  br label %98

98:                                               ; preds = %89
  %99 = load ptr, ptr %9, align 8, !tbaa !730
  %100 = getelementptr inbounds nuw i32, ptr %99, i32 1
  store ptr %100, ptr %9, align 8, !tbaa !730
  br label %84

101:                                              ; preds = %88
  %102 = getelementptr inbounds nuw %"class.smt::theory_pb", ptr %12, i32 0, i32 23
  %103 = load i32, ptr %102, align 8, !tbaa !803
  %104 = load i32, ptr %3, align 4, !tbaa !8
  %105 = add i32 %103, %104
  %106 = sub i32 %105, 1
  %107 = load i32, ptr %3, align 4, !tbaa !8
  %108 = udiv i32 %106, %107
  %109 = getelementptr inbounds nuw %"class.smt::theory_pb", ptr %12, i32 0, i32 23
  store i32 %108, ptr %109, align 8, !tbaa !803
  br label %110

110:                                              ; preds = %101, %75
  call void @llvm.lifetime.end.p0(i64 4, ptr %3) #3
  ret void

111:                                              ; preds = %69
  unreachable
}