; Function Attrs: mustprogress uwtable
define hidden void @_ZN3smt9theory_pb3cutEv(ptr noundef nonnull align 8 dereferenceable(968) %0) local_unnamed_addr #4 align 2 {
  %2 = getelementptr inbounds nuw i8, ptr %0, i64 864
  %3 = getelementptr inbounds nuw i8, ptr %0, i64 856
  %4 = getelementptr inbounds nuw i8, ptr %0, i64 872
  br label %5

5:                                                ; preds = %1, %_ZNK3smt9theory_pb13get_abs_coeffEj.exit.thread
  %indvars.iv = phi i64 [ 0, %1 ], [ %indvars.iv.next, %_ZNK3smt9theory_pb13get_abs_coeffEj.exit.thread ]
  %.033 = phi i32 [ 0, %1 ], [ %.1, %_ZNK3smt9theory_pb13get_abs_coeffEj.exit.thread ]
  %6 = load ptr, ptr %2, align 8, !tbaa !660
  %7 = icmp eq ptr %6, null
  br i1 %7, label %_ZNK6vectorIjLb0EjE4sizeEv.exit, label %8

8:                                                ; preds = %5
  %9 = getelementptr inbounds i8, ptr %6, i64 -4
  %10 = load i32, ptr %9, align 4, !tbaa !9
  %11 = zext i32 %10 to i64
  br label %_ZNK6vectorIjLb0EjE4sizeEv.exit

_ZNK6vectorIjLb0EjE4sizeEv.exit:                  ; preds = %5, %8
  %.0.i = phi i64 [ %11, %8 ], [ 0, %5 ]
  %12 = icmp samesign ult i64 %indvars.iv, %.0.i
  br i1 %12, label %13, label %.critedge

.critedge:                                        ; preds = %_ZNK6vectorIjLb0EjE4sizeEv.exit
  %.not30 = icmp eq i32 %.033, 0
  br i1 %.not30, label %.critedge.thread, label %33

13:                                               ; preds = %_ZNK6vectorIjLb0EjE4sizeEv.exit
  %14 = getelementptr inbounds nuw i32, ptr %6, i64 %indvars.iv
  %15 = load i32, ptr %14, align 4, !tbaa !9
  %16 = load ptr, ptr %3, align 8, !tbaa !735
  %17 = icmp eq ptr %16, null
  br i1 %17, label %_ZNK3smt9theory_pb13get_abs_coeffEj.exit.thread, label %_ZNK6vectorIiLb0EjE3getEjRKi.exit.i.i

_ZNK6vectorIiLb0EjE3getEjRKi.exit.i.i:            ; preds = %13
  %18 = getelementptr inbounds i8, ptr %16, i64 -4
  %19 = load i32, ptr %18, align 4, !tbaa !9
  %.not.i.i.i = icmp ult i32 %15, %19
  br i1 %.not.i.i.i, label %_ZNK3smt9theory_pb13get_abs_coeffEj.exit, label %_ZNK3smt9theory_pb13get_abs_coeffEj.exit.thread

_ZNK3smt9theory_pb13get_abs_coeffEj.exit:         ; preds = %_ZNK6vectorIiLb0EjE3getEjRKi.exit.i.i
  %20 = zext i32 %15 to i64
  %21 = getelementptr inbounds nuw i32, ptr %16, i64 %20
  %.then.val.i.i = load i32, ptr %21, align 4, !tbaa !9
  %.then.val.i.fr.i = freeze i32 %.then.val.i.i
  %22 = icmp eq i32 %.then.val.i.fr.i, 0
  br i1 %22, label %_ZNK3smt9theory_pb13get_abs_coeffEj.exit.thread, label %23

23:                                               ; preds = %_ZNK3smt9theory_pb13get_abs_coeffEj.exit
  %spec.select.i = tail call i32 @llvm.abs.i32(i32 %.then.val.i.fr.i, i1 true)
  %24 = load i32, ptr %4, align 8, !tbaa !798
  %25 = icmp slt i32 %24, %spec.select.i
  br i1 %25, label %_ZNK3smt9theory_pb9get_coeffEj.exit, label %29

_ZNK3smt9theory_pb9get_coeffEj.exit:              ; preds = %23
  %26 = icmp sgt i32 %.then.val.i.fr.i, 0
  %27 = sub nsw i32 0, %24
  %spec.select = select i1 %26, i32 %24, i32 %27
  store i32 %spec.select, ptr %21, align 4, !tbaa !9
  %28 = load i32, ptr %4, align 8, !tbaa !798
  br label %29

29:                                               ; preds = %_ZNK3smt9theory_pb9get_coeffEj.exit, %23
  %.027 = phi i32 [ %28, %_ZNK3smt9theory_pb9get_coeffEj.exit ], [ %spec.select.i, %23 ]
  %30 = icmp eq i32 %.033, 0
  br i1 %30, label %_ZNK3smt9theory_pb13get_abs_coeffEj.exit.thread, label %31

31:                                               ; preds = %29
  %32 = tail call noundef i32 @_Z5u_gcdjj(i32 noundef %.033, i32 noundef %.027)
  br label %_ZNK3smt9theory_pb13get_abs_coeffEj.exit.thread

_ZNK3smt9theory_pb13get_abs_coeffEj.exit.thread:  ; preds = %13, %_ZNK6vectorIiLb0EjE3getEjRKi.exit.i.i, %31, %29, %_ZNK3smt9theory_pb13get_abs_coeffEj.exit
  %.1 = phi i32 [ %.033, %_ZNK3smt9theory_pb13get_abs_coeffEj.exit ], [ %32, %31 ], [ %.027, %29 ], [ %.033, %_ZNK6vectorIiLb0EjE3getEjRKi.exit.i.i ], [ %.033, %13 ]
  %indvars.iv.next = add nuw nsw i64 %indvars.iv, 1
  %.not = icmp eq i32 %.1, 1
  br i1 %.not, label %.critedge.thread, label %5, !llvm.loop !881

33:                                               ; preds = %.critedge
  tail call void @_ZN3smt9theory_pb23normalize_active_coeffsEv(ptr noundef nonnull align 8 dereferenceable(968) %0)
  %34 = load ptr, ptr %2, align 8, !tbaa !660
  %35 = icmp eq ptr %34, null
  br i1 %35, label %._crit_edge, label %_ZN6vectorIjLb0EjE3endEv.exit

_ZN6vectorIjLb0EjE3endEv.exit:                    ; preds = %33
  %36 = getelementptr inbounds i8, ptr %34, i64 -4
  %37 = load i32, ptr %36, align 4, !tbaa !9
  %38 = zext i32 %37 to i64
  %39 = getelementptr inbounds nuw i32, ptr %34, i64 %38
  %.not2934 = icmp eq i32 %37, 0
  br i1 %.not2934, label %._crit_edge, label %.lr.ph

.lr.ph:                                           ; preds = %_ZN6vectorIjLb0EjE3endEv.exit
  %40 = load ptr, ptr %3, align 8, !tbaa !735
  br label %45

._crit_edge:                                      ; preds = %45, %33, %_ZN6vectorIjLb0EjE3endEv.exit
  %41 = load i32, ptr %4, align 8, !tbaa !798
  %42 = add i32 %.033, -1
  %43 = add i32 %42, %41
  %44 = udiv i32 %43, %.033
  store i32 %44, ptr %4, align 8, !tbaa !798
  br label %.critedge.thread

45:                                               ; preds = %.lr.ph, %45
  %.02635 = phi ptr [ %34, %.lr.ph ], [ %51, %45 ]
  %46 = load i32, ptr %.02635, align 4, !tbaa !9
  %47 = zext i32 %46 to i64
  %48 = getelementptr inbounds nuw i32, ptr %40, i64 %47
  %49 = load i32, ptr %48, align 4, !tbaa !9
  %50 = sdiv i32 %49, %.033
  store i32 %50, ptr %48, align 4, !tbaa !9
  %51 = getelementptr inbounds nuw i8, ptr %.02635, i64 4
  %.not29 = icmp eq ptr %51, %39
  br i1 %.not29, label %._crit_edge, label %45

.critedge.thread:                                 ; preds = %_ZNK3smt9theory_pb13get_abs_coeffEj.exit.thread, %._crit_edge, %.critedge
  ret void
}